target datalayout = "e-m:e-p270:32:32-p271:32:32-p272:64:64-i64:64-i128:128-f80:128-n8:16:32:64-S128"
target triple = "x86_64-pc-linux-gnu"

%struct._packet_info = type { ptr, ptr, i32, i32, %struct.nstime_t, %struct.nstime_t, %struct.nstime_t, i8, ptr, ptr, ptr, ptr, %struct._address, %struct._address, %struct._address, %struct._address, %struct._address, %struct._address, i32, ptr, i8, [3 x i8], %struct.anon, i32, i32, i32, i32, ptr, i8, ptr, ptr, i16, i16, i32, i32, i16, i32, i32, ptr, ptr, ptr, i8, i8, i16, i16, i16, i32, i16, i16, ptr, ptr, ptr, ptr, ptr, i32, i32 }
%struct.nstime_t = type { i64, i32 }
%struct._address = type { i32, i32, ptr, ptr }
%struct.anon = type { i8, [3 x i8] }

@hf_gnutella_stream = internal global i32 0, align 4
@ett_gnutella = internal global i32 0, align 4
@proto_gnutella = internal global i32 0, align 4
@.str.92 = private unnamed_addr constant [9 x i8] c"Gnutella\00", align 1

; Function Attrs: null_pointer_is_valid sspstrong uwtable
define internal i32 @dissect_gnutella(ptr noundef %0, ptr noundef %1, ptr noundef %2, ptr noundef %3) #0 {
  %5 = alloca i32, align 4
  %6 = alloca ptr, align 8
  %7 = alloca ptr, align 8
  %8 = alloca ptr, align 8
  %9 = alloca ptr, align 8
  %10 = alloca ptr, align 8
  %11 = alloca ptr, align 8
  %12 = alloca i32, align 4
  %13 = alloca i32, align 4
  store ptr %0, ptr %6, align 8
  store ptr %1, ptr %7, align 8
  store ptr %2, ptr %8, align 8
  store ptr %3, ptr %9, align 8
  call void @llvm.lifetime.start.p0(i64 8, ptr %10) #3
  call void @llvm.lifetime.start.p0(i64 8, ptr %11) #3
  store ptr null, ptr %11, align 8
  call void @llvm.lifetime.start.p0(i64 4, ptr %12) #3
  %14 = load ptr, ptr %7, align 8
  %15 = getelementptr inbounds nuw %struct._packet_info, ptr %14, i32 0, i32 1
  %16 = load ptr, ptr %15, align 8
  call void @col_set_str(ptr noundef %16, i32 noundef 35, ptr noundef @.str.92)
  %17 = load ptr, ptr %7, align 8
  %18 = getelementptr inbounds nuw %struct._packet_info, ptr %17, i32 0, i32 1
  %19 = load ptr, ptr %18, align 8
  call void @col_clear(ptr noundef %19, i32 noundef 25)
  %20 = load ptr, ptr %6, align 8
  %21 = call zeroext i1 @tvb_bytes_exist(ptr noundef %20, i32 noundef 19, i32 noundef 4)
  br i1 %21, label %22, label %46

22:                                               ; preds = %4
  %23 = load ptr, ptr %6, align 8
  %24 = call i32 @tvb_get_letohl(ptr noundef %23, i32 noundef 19)
  store i32 %24, ptr %12, align 4
  %25 = load i32, ptr %12, align 4
  %26 = icmp ugt i32 %25, 4096
  br i1 %26, label %27, label %45

27:                                               ; preds = %22
  %28 = load ptr, ptr %8, align 8
  %29 = icmp ne ptr %28, null
  br i1 %29, label %30, label %42

30:                                               ; preds = %27
  %31 = load ptr, ptr %8, align 8
  %32 = load i32, ptr @proto_gnutella, align 4
  %33 = load ptr, ptr %6, align 8
  %34 = call ptr @proto_tree_add_item(ptr noundef %31, i32 noundef %32, ptr noundef %33, i32 noundef 0, i32 noundef -1, i32 noundef 0)
  store ptr %34, ptr %10, align 8
  %35 = load ptr, ptr %10, align 8
  %36 = load i32, ptr @ett_gnutella, align 4
  %37 = call ptr @proto_item_add_subtree(ptr noundef %35, i32 noundef %36)
  store ptr %37, ptr %11, align 8
  %38 = load ptr, ptr %11, align 8
  %39 = load i32, ptr @hf_gnutella_stream, align 4
  %40 = load ptr, ptr %6, align 8
  %41 = call ptr @proto_tree_add_item(ptr noundef %38, i32 noundef %39, ptr noundef %40, i32 noundef 0, i32 noundef -1, i32 noundef 0)
  br label %42

42:                                               ; preds = %30, %27
  %43 = load ptr, ptr %6, align 8
  %44 = call i32 @tvb_captured_length(ptr noundef %43)
  store i32 %44, ptr %5, align 4
  store i32 1, ptr %13, align 4
  br label %53

45:                                               ; preds = %22
  br label %46

46:                                               ; preds = %45, %4
  %47 = load ptr, ptr %6, align 8
  %48 = load ptr, ptr %7, align 8
  %49 = load ptr, ptr %8, align 8
  %50 = load ptr, ptr %9, align 8
  call void @tcp_dissect_pdus(ptr noundef %47, ptr noundef %48, ptr noundef %49, i1 noundef zeroext true, i32 noundef 23, ptr noundef @get_gnutella_pdu_len, ptr noundef @dissect_gnutella_pdu, ptr noundef %50)
  %51 = load ptr, ptr %6, align 8
  %52 = call i32 @tvb_captured_length(ptr noundef %51)
  store i32 %52, ptr %5, align 4
  store i32 1, ptr %13, align 4
  br label %53

53:                                               ; preds = %46, %42
  call void @llvm.lifetime.end.p0(i64 4, ptr %12) #3
  call void @llvm.lifetime.end.p0(i64 8, ptr %11) #3
  call void @llvm.lifetime.end.p0(i64 8, ptr %10) #3
  %54 = load i32, ptr %5, align 4
  ret i32 %54
}