; Function Attrs: null_pointer_is_valid sspstrong uwtable
define internal i32 @dissect_gnutella(ptr noundef %0, ptr noundef %1, ptr noundef %2, ptr noundef %3) #0 {
  %5 = getelementptr inbounds nuw i8, ptr %1, i64 8
  %6 = load ptr, ptr %5, align 8
  tail call void @col_set_str(ptr noundef %6, i32 noundef 35, ptr noundef nonnull @.str.92)
  %7 = load ptr, ptr %5, align 8
  tail call void @col_clear(ptr noundef %7, i32 noundef 25)
  %8 = tail call zeroext i1 @tvb_bytes_exist(ptr noundef %0, i32 noundef 19, i32 noundef 4)
  br i1 %8, label %9, label %20

9:                                                ; preds = %4
  %10 = tail call i32 @tvb_get_letohl(ptr noundef %0, i32 noundef 19)
  %11 = icmp ugt i32 %10, 4096
  br i1 %11, label %12, label %20

12:                                               ; preds = %9
  %.not = icmp eq ptr %2, null
  br i1 %.not, label %21, label %13

13:                                               ; preds = %12
  %14 = load i32, ptr @proto_gnutella, align 4
  %15 = tail call ptr @proto_tree_add_item(ptr noundef nonnull %2, i32 noundef %14, ptr noundef %0, i32 noundef 0, i32 noundef -1, i32 noundef 0)
  %16 = load i32, ptr @ett_gnutella, align 4
  %17 = tail call ptr @proto_item_add_subtree(ptr noundef %15, i32 noundef %16)
  %18 = load i32, ptr @hf_gnutella_stream, align 4
  %19 = tail call ptr @proto_tree_add_item(ptr noundef %17, i32 noundef %18, ptr noundef %0, i32 noundef 0, i32 noundef -1, i32 noundef 0)
  br label %21

20:                                               ; preds = %9, %4
  tail call void @tcp_dissect_pdus(ptr noundef %0, ptr noundef %1, ptr noundef %2, i1 noundef zeroext true, i32 noundef 23, ptr noundef nonnull @get_gnutella_pdu_len, ptr noundef nonnull @dissect_gnutella_pdu, ptr noundef %3)
  br label %21

21:                                               ; preds = %12, %13, %20
  %22 = tail call i32 @tvb_captured_length(ptr noundef %0)
  ret i32 %22
}